; Function Attrs: mustprogress uwtable
define dso_local void @_ZN16cmLocalGenerator15AddCMP0018FlagsERNSt7__cxx1112basic_stringIcSt11char_traitsIcESaIcEEEPK17cmGeneratorTargetRKS5_SB_(ptr noundef nonnull align 8 dereferenceable(824) %0, ptr noundef nonnull align 8 dereferenceable(32) %1, ptr noundef nonnull %2, ptr noundef nonnull align 8 dereferenceable(32) %3, ptr noundef nonnull align 8 dereferenceable(32) %4) local_unnamed_addr #3 align 2 personality ptr @__gxx_personality_v0 {
  %6 = alloca %"class.std::__cxx11::basic_string", align 8
  %7 = alloca %"class.std::allocator", align 1
  %8 = tail call noundef i32 @_ZNK17cmGeneratorTarget7GetTypeEv(ptr noundef nonnull align 8 dereferenceable(2728) %2)
  %9 = and i32 %8, -2
  %10 = icmp eq i32 %9, 2
  %11 = tail call noundef zeroext i1 @_ZNK16cmLocalGenerator20GetShouldUseOldFlagsEbRKNSt7__cxx1112basic_stringIcSt11char_traitsIcESaIcEEE(ptr noundef nonnull align 8 dereferenceable(824) %0, i1 noundef zeroext %10, ptr noundef nonnull align 8 dereferenceable(32) %3)
  br i1 %11, label %12, label %13

12:                                               ; preds = %5
  tail call void @_ZN16cmLocalGenerator14AddSharedFlagsERNSt7__cxx1112basic_stringIcSt11char_traitsIcESaIcEEERKS5_b(ptr noundef nonnull align 8 dereferenceable(824) %0, ptr noundef nonnull align 8 dereferenceable(32) %1, ptr noundef nonnull align 8 dereferenceable(32) %3, i1 noundef zeroext %10)
  br label %26

13:                                               ; preds = %5
  call void @_ZNSaIcEC1Ev(ptr noundef nonnull align 1 dereferenceable(1) %7) #23
  %14 = invoke noundef ptr @_ZNSt7__cxx1112basic_stringIcSt11char_traitsIcESaIcEE13_M_local_dataEv(ptr noundef nonnull align 8 dereferenceable(32) %6)
          to label %.noexc unwind label %20

.noexc:                                           ; preds = %13
  invoke void @_ZNSt7__cxx1112basic_stringIcSt11char_traitsIcESaIcEE12_Alloc_hiderC1EPcRKS3_(ptr noundef nonnull align 8 dereferenceable(8) %6, ptr noundef %14, ptr noundef nonnull align 1 dereferenceable(1) %7)
          to label %.noexc20 unwind label %20

.noexc20:                                         ; preds = %.noexc
  invoke void @_ZNSt7__cxx1112basic_stringIcSt11char_traitsIcESaIcEE12_M_constructIPKcEEvT_S8_St20forward_iterator_tag(ptr noundef nonnull align 8 dereferenceable(32) %6, ptr noundef nonnull @.str.212, ptr noundef nonnull getelementptr inbounds ([26 x i8], ptr @.str.212, i64 0, i64 25))
          to label %_ZNSt7__cxx1112basic_stringIcSt11char_traitsIcESaIcEEC2IS3_EEPKcRKS3_.exit unwind label %15

15:                                               ; preds = %.noexc20
  %16 = landingpad { ptr, i32 }
          cleanup
  call void @_ZNSaIcED2Ev(ptr noundef nonnull align 1 dereferenceable(1) %6) #23
  br label %.body

_ZNSt7__cxx1112basic_stringIcSt11char_traitsIcESaIcEEC2IS3_EEPKcRKS3_.exit: ; preds = %.noexc20
  %17 = invoke noundef zeroext i1 @_ZNK17cmGeneratorTarget37GetLinkInterfaceDependentBoolPropertyERKNSt7__cxx1112basic_stringIcSt11char_traitsIcESaIcEEES7_(ptr noundef nonnull align 8 dereferenceable(2728) %2, ptr noundef nonnull align 8 dereferenceable(32) %6, ptr noundef nonnull align 8 dereferenceable(32) %4)
          to label %18 unwind label %22

18:                                               ; preds = %_ZNSt7__cxx1112basic_stringIcSt11char_traitsIcESaIcEEC2IS3_EEPKcRKS3_.exit
  call void @_ZNSt7__cxx1112basic_stringIcSt11char_traitsIcESaIcEED1Ev(ptr noundef nonnull align 8 dereferenceable(32) %6) #23
  call void @_ZNSaIcED1Ev(ptr noundef nonnull align 1 dereferenceable(1) %7) #23
  br i1 %17, label %19, label %24

19:                                               ; preds = %18
  call void @_ZN16cmLocalGenerator27AddPositionIndependentFlagsERNSt7__cxx1112basic_stringIcSt11char_traitsIcESaIcEEERKS5_i(ptr noundef nonnull align 8 dereferenceable(824) %0, ptr noundef nonnull align 8 dereferenceable(32) %1, ptr noundef nonnull align 8 dereferenceable(32) %3, i32 noundef %8)
  br label %24

20:                                               ; preds = %.noexc, %13
  %21 = landingpad { ptr, i32 }
          cleanup
  br label %.body

22:                                               ; preds = %_ZNSt7__cxx1112basic_stringIcSt11char_traitsIcESaIcEEC2IS3_EEPKcRKS3_.exit
  %23 = landingpad { ptr, i32 }
          cleanup
  call void @_ZNSt7__cxx1112basic_stringIcSt11char_traitsIcESaIcEED1Ev(ptr noundef nonnull align 8 dereferenceable(32) %6) #23
  br label %.body

.body:                                            ; preds = %20, %15, %22
  %.pn = phi { ptr, i32 } [ %23, %22 ], [ %21, %20 ], [ %16, %15 ]
  call void @_ZNSaIcED1Ev(ptr noundef nonnull align 1 dereferenceable(1) %7) #23
  resume { ptr, i32 } %.pn

24:                                               ; preds = %19, %18
  br i1 %10, label %25, label %26

25:                                               ; preds = %24
  call void @_ZN16cmLocalGenerator20AppendFeatureOptionsERNSt7__cxx1112basic_stringIcSt11char_traitsIcESaIcEEERKS5_PKc(ptr noundef nonnull align 8 dereferenceable(824) %0, ptr noundef nonnull align 8 dereferenceable(32) %1, ptr noundef nonnull align 8 dereferenceable(32) %3, ptr noundef nonnull @.str.213)
  br label %26

26:                                               ; preds = %24, %25, %12
  ret void
}